(dp0
S'Max'
p1
(lp2
S'logins: 2'
p3
aS'0 Attempted: 0'
p4
aS'1 Attempted: 0'
p5
aS'2 Attempted: 0'
p6
aS'3 Attempted: 0'
p7
aS'4 Attempted: 2'
p8
aS'5 Attempted: 0'
p9
aS'6 Attempted: 1'
p10
aS'7 Attempted: 0'
p11
aS'8 Attempted: 1'
p12
aS'9 Attempted: 2'
p13
as.