(dp0
S'Max'
p1
(lp2
S'logins: 18'
p3
aS'0 Attempted: 0'
p4
aS'1 Attempted: 0'
p5
aS'2 Attempted: 0'
p6
aS'3 Attempted: 0'
p7
aS'4 Attempted: 0'
p8
aS'5 Attempted: 0'
p9
aS'6 Attempted: 0'
p10
aS'7 Attempted: 0'
p11
aS'8 Attempted: 0'
p12
aS'9 Attempted: 0'
p13
aS'0 Success: 4'
p14
aS'1 Success: 4'
p15
aS'2 Success: 4'
p16
aS'3 Success: 4'
p17
aS'4 Success: 4'
p18
aS'5 Success: 4'
p19
aS'6 Success: 4'
p20
aS'7 Success: 4'
p21
aS'8 Success: 4'
p22
aS'9 Success: 3'
p23
aS'Total Correct: 10'
p24
as.